target datalayout = "e-m:e-p270:32:32-p271:32:32-p272:64:64-i64:64-i128:128-f80:128-n8:16:32:64-S128"
target triple = "x86_64-pc-linux-gnu"

@hwloc_libxml2_needs_cleanup = internal global i32 0, align 4
@.str.16 = private unnamed_addr constant [6 x i8] c"UTF-8\00", align 1

; Function Attrs: nounwind uwtable
define internal void @hwloc_libxml2_cleanup() #0 {
  %1 = load i32, ptr @hwloc_libxml2_needs_cleanup, align 4, !tbaa !12
  %2 = icmp ne i32 %1, 0
  br i1 %2, label %3, label %4

3:                                                ; preds = %0
  call void @xmlCleanupParser()
  br label %4

4:                                                ; preds = %3, %0
  ret void
}

; Function Attrs: nounwind uwtable
define internal i32 @hwloc_libxml_export_diff_file(ptr noundef %0, ptr noundef %1, ptr noundef %2) #0 {
  %4 = alloca i32, align 4
  %5 = alloca ptr, align 8
  %6 = alloca ptr, align 8
  %7 = alloca ptr, align 8
  %8 = alloca ptr, align 8
  %9 = alloca i32, align 4
  %10 = alloca i32, align 4
  store ptr %0, ptr %5, align 8, !tbaa !61
  store ptr %1, ptr %6, align 8, !tbaa !7
  store ptr %2, ptr %7, align 8, !tbaa !7
  call void @llvm.lifetime.start.p0(i64 8, ptr %8) #7
  call void @llvm.lifetime.start.p0(i64 4, ptr %9) #7
  %11 = call ptr @__errno_location() #8
  store i32 0, ptr %11, align 4, !tbaa !12
  %12 = load ptr, ptr %5, align 8, !tbaa !61
  %13 = load ptr, ptr %6, align 8, !tbaa !7
  %14 = call ptr @hwloc__libxml2_prepare_export_diff(ptr noundef %12, ptr noundef %13)
  store ptr %14, ptr %8, align 8, !tbaa !14
  %15 = load ptr, ptr %7, align 8, !tbaa !7
  %16 = load ptr, ptr %8, align 8, !tbaa !14
  %17 = call i32 @xmlSaveFormatFileEnc(ptr noundef %15, ptr noundef %16, ptr noundef @.str.16, i32 noundef 1)
  store i32 %17, ptr %9, align 4, !tbaa !12
  %18 = load ptr, ptr %8, align 8, !tbaa !14
  call void @xmlFreeDoc(ptr noundef %18)
  call void @hwloc_libxml2_cleanup()
  %19 = load i32, ptr %9, align 4, !tbaa !12
  %20 = icmp slt i32 %19, 0
  br i1 %20, label %21, label %29

21:                                               ; preds = %3
  %22 = call ptr @__errno_location() #8
  %23 = load i32, ptr %22, align 4, !tbaa !12
  %24 = icmp ne i32 %23, 0
  br i1 %24, label %27, label %25

25:                                               ; preds = %21
  %26 = call ptr @__errno_location() #8
  store i32 22, ptr %26, align 4, !tbaa !12
  br label %27

27:                                               ; preds = %25, %21
  %28 = load i32, ptr %9, align 4, !tbaa !12
  store i32 %28, ptr %4, align 4
  store i32 1, ptr %10, align 4
  br label %30

29:                                               ; preds = %3
  store i32 0, ptr %4, align 4
  store i32 1, ptr %10, align 4
  br label %30

30:                                               ; preds = %29, %27
  call void @llvm.lifetime.end.p0(i64 4, ptr %9) #7
  call void @llvm.lifetime.end.p0(i64 8, ptr %8) #7
  %31 = load i32, ptr %4, align 4
  ret i32 %31
}