; Function Attrs: nounwind uwtable
define internal range(i32 -2147483648, 1) i32 @hwloc_libxml_export_diff_file(ptr noundef %0, ptr noundef %1, ptr noundef %2) #1 {
  %4 = tail call ptr @__errno_location() #12
  store i32 0, ptr %4, align 4, !tbaa !7
  %5 = tail call fastcc ptr @hwloc__libxml2_prepare_export_diff(ptr noundef %0, ptr noundef %1)
  %6 = tail call i32 @xmlSaveFormatFileEnc(ptr noundef %2, ptr noundef %5, ptr noundef nonnull @.str.16, i32 noundef 1) #11
  tail call void @xmlFreeDoc(ptr noundef %5) #11
  %.b.i = load i1, ptr @hwloc_libxml2_needs_cleanup, align 4
  br i1 %.b.i, label %7, label %hwloc_libxml2_cleanup.exit

7:                                                ; preds = %3
  tail call void @xmlCleanupParser() #11
  br label %hwloc_libxml2_cleanup.exit

hwloc_libxml2_cleanup.exit:                       ; preds = %3, %7
  %8 = icmp slt i32 %6, 0
  br i1 %8, label %9, label %12

9:                                                ; preds = %hwloc_libxml2_cleanup.exit
  %10 = load i32, ptr %4, align 4, !tbaa !7
  %.not = icmp eq i32 %10, 0
  br i1 %.not, label %11, label %12

11:                                               ; preds = %9
  store i32 22, ptr %4, align 4, !tbaa !7
  br label %12

12:                                               ; preds = %hwloc_libxml2_cleanup.exit, %9, %11
  %.0 = phi i32 [ %6, %11 ], [ %6, %9 ], [ 0, %hwloc_libxml2_cleanup.exit ]
  ret i32 %.0
}